; Function Attrs: mustprogress nofree norecurse nosync nounwind willreturn memory(argmem: read) uwtable
define { i64, i64 } @_ZN5arrowngERKNS_15BasicDecimal128E(ptr noundef nonnull readonly align 8 captures(none) dereferenceable(16) %0) local_unnamed_addr #7 {
  %2 = getelementptr inbounds nuw i8, ptr %0, i64 8
  %3 = load i64, ptr %2, align 8, !tbaa !7
  %4 = load i64, ptr %0, align 8, !tbaa !7
  %5 = xor i64 %3, -1
  %6 = icmp eq i64 %4, 0
  %7 = sub i64 0, %3
  %8 = sub i64 0, %4
  %.sroa.6.0.i = select i1 %6, i64 %7, i64 %5
  %.fca.0.insert = insertvalue { i64, i64 } poison, i64 %8, 0
  %.fca.1.insert = insertvalue { i64, i64 } %.fca.0.insert, i64 %.sroa.6.0.i, 1
  ret { i64, i64 } %.fca.1.insert
}